; ModuleID = '773.c'
source_filename = "773.c"
target datalayout = "e-m:e-p270:32:32-p271:32:32-p272:64:64-i64:64-f80:128-n8:16:32:64-S128"
target triple = "x86_64-pc-linux-gnu"

@.str = private unnamed_addr constant [3 x i8] c"%d\00", align 1
@.str.1 = private unnamed_addr constant [4 x i8] c",%d\00", align 1

; Function Attrs: noinline nounwind uwtable
define dso_local i32 @main() #0 {
  %1 = alloca i32, align 4
  %2 = alloca [1000 x i8], align 16
  %3 = alloca [100 x i8], align 16
  %4 = alloca i8*, align 8
  %5 = alloca i32, align 4
  %6 = alloca i32, align 4
  %7 = alloca i32, align 4
  store i32 0, i32* %1, align 4
  store i32 0, i32* %7, align 4
  %8 = getelementptr inbounds [1000 x i8], [1000 x i8]* %2, i64 0, i64 0
  %9 = call i32 (i8*, ...) bitcast (i32 (...)* @gets to i32 (i8*, ...)*)(i8* %8)
  %10 = getelementptr inbounds [1000 x i8], [1000 x i8]* %2, i64 0, i64 0
  store i8* %10, i8** %4, align 8
  br label %11

11:                                               ; preds = %104, %21, %0
  %12 = load i8*, i8** %4, align 8
  %13 = load i8, i8* %12, align 1
  %14 = sext i8 %13 to i32
  %15 = icmp ne i32 %14, 0
  br i1 %15, label %16, label %105

16:                                               ; preds = %11
  %17 = load i8*, i8** %4, align 8
  %18 = load i8, i8* %17, align 1
  %19 = sext i8 %18 to i32
  %20 = icmp eq i32 %19, 32
  br i1 %20, label %21, label %24

21:                                               ; preds = %16
  %22 = load i8*, i8** %4, align 8
  %23 = getelementptr inbounds i8, i8* %22, i32 1
  store i8* %23, i8** %4, align 8
  br label %11

24:                                               ; preds = %16
  store i32 0, i32* %5, align 4
  br label %25

25:                                               ; preds = %32, %24
  %26 = load i32, i32* %5, align 4
  %27 = icmp slt i32 %26, 100
  br i1 %27, label %28, label %35

28:                                               ; preds = %25
  %29 = load i32, i32* %5, align 4
  %30 = sext i32 %29 to i64
  %31 = getelementptr inbounds [100 x i8], [100 x i8]* %3, i64 0, i64 %30
  store i8 0, i8* %31, align 1
  br label %32

32:                                               ; preds = %28
  %33 = load i32, i32* %5, align 4
  %34 = add nsw i32 %33, 1
  store i32 %34, i32* %5, align 4
  br label %25

35:                                               ; preds = %25
  store i32 0, i32* %5, align 4
  br label %36

36:                                               ; preds = %90, %35
  %37 = load i8*, i8** %4, align 8
  %38 = load i8, i8* %37, align 1
  %39 = load i32, i32* %5, align 4
  %40 = sext i32 %39 to i64
  %41 = getelementptr inbounds [100 x i8], [100 x i8]* %3, i64 0, i64 %40
  store i8 %38, i8* %41, align 1
  %42 = load i32, i32* %5, align 4
  %43 = sext i32 %42 to i64
  %44 = getelementptr inbounds [100 x i8], [100 x i8]* %3, i64 0, i64 %43
  %45 = load i8, i8* %44, align 1
  %46 = sext i8 %45 to i32
  %47 = icmp eq i32 %46, 32
  br i1 %47, label %55, label %48

48:                                               ; preds = %36
  %49 = load i32, i32* %5, align 4
  %50 = sext i32 %49 to i64
  %51 = getelementptr inbounds [100 x i8], [100 x i8]* %3, i64 0, i64 %50
  %52 = load i8, i8* %51, align 1
  %53 = sext i8 %52 to i32
  %54 = icmp eq i32 %53, 0
  br i1 %54, label %55, label %65

55:                                               ; preds = %48, %36
  %56 = load i32, i32* %7, align 4
  %57 = icmp eq i32 %56, 0
  br i1 %57, label %58, label %65

58:                                               ; preds = %55
  %59 = load i32, i32* %5, align 4
  %60 = sext i32 %59 to i64
  %61 = getelementptr inbounds [100 x i8], [100 x i8]* %3, i64 0, i64 %60
  store i8 0, i8* %61, align 1
  %62 = getelementptr inbounds [100 x i8], [100 x i8]* %3, i64 0, i64 0
  %63 = call i64 @strlen(i8* %62) #3
  %64 = call i32 (i8*, ...) @printf(i8* getelementptr inbounds ([3 x i8], [3 x i8]* @.str, i64 0, i64 0), i64 %63)
  store i32 1, i32* %7, align 4
  br label %95

65:                                               ; preds = %55, %48
  %66 = load i32, i32* %5, align 4
  %67 = sext i32 %66 to i64
  %68 = getelementptr inbounds [100 x i8], [100 x i8]* %3, i64 0, i64 %67
  %69 = load i8, i8* %68, align 1
  %70 = sext i8 %69 to i32
  %71 = icmp eq i32 %70, 32
  br i1 %71, label %79, label %72

72:                                               ; preds = %65
  %73 = load i32, i32* %5, align 4
  %74 = sext i32 %73 to i64
  %75 = getelementptr inbounds [100 x i8], [100 x i8]* %3, i64 0, i64 %74
  %76 = load i8, i8* %75, align 1
  %77 = sext i8 %76 to i32
  %78 = icmp eq i32 %77, 0
  br i1 %78, label %79, label %89

79:                                               ; preds = %72, %65
  %80 = load i32, i32* %7, align 4
  %81 = icmp ne i32 %80, 0
  br i1 %81, label %82, label %89

82:                                               ; preds = %79
  %83 = load i32, i32* %5, align 4
  %84 = sext i32 %83 to i64
  %85 = getelementptr inbounds [100 x i8], [100 x i8]* %3, i64 0, i64 %84
  store i8 0, i8* %85, align 1
  %86 = getelementptr inbounds [100 x i8], [100 x i8]* %3, i64 0, i64 0
  %87 = call i64 @strlen(i8* %86) #3
  %88 = call i32 (i8*, ...) @printf(i8* getelementptr inbounds ([4 x i8], [4 x i8]* @.str.1, i64 0, i64 0), i64 %87)
  br label %95

89:                                               ; preds = %79, %72
  br label %90

90:                                               ; preds = %89
  %91 = load i8*, i8** %4, align 8
  %92 = getelementptr inbounds i8, i8* %91, i32 1
  store i8* %92, i8** %4, align 8
  %93 = load i32, i32* %5, align 4
  %94 = add nsw i32 %93, 1
  store i32 %94, i32* %5, align 4
  br label %36

95:                                               ; preds = %82, %58
  %96 = load i8*, i8** %4, align 8
  %97 = load i8, i8* %96, align 1
  %98 = sext i8 %97 to i32
  %99 = icmp eq i32 %98, 0
  br i1 %99, label %100, label %101

100:                                              ; preds = %95
  br label %105

101:                                              ; preds = %95
  %102 = load i8*, i8** %4, align 8
  %103 = getelementptr inbounds i8, i8* %102, i32 1
  store i8* %103, i8** %4, align 8
  br label %104

104:                                              ; preds = %101
  br label %11

105:                                              ; preds = %100, %11
  ret i32 0
}

declare dso_local i32 @gets(...) #1

declare dso_local i32 @printf(i8*, ...) #1

; Function Attrs: nounwind readonly
declare dso_local i64 @strlen(i8*) #2


!llvm.module.flags = !{!0}
!llvm.ident = !{!1}

!0 = !{i32 1, !"wchar_size", i32 4}
!1 = !{!"clang version 10.0.0-4ubuntu1 "}
